target datalayout = "e-m:e-p270:32:32-p271:32:32-p272:64:64-i64:64-i128:128-f80:128-n8:16:32:64-S128"
target triple = "x86_64-pc-linux-gnu"

%struct.__loadu_ps = type { <4 x float> }
%struct.__storeu_ps = type { <4 x float> }

; Function Attrs: alwaysinline nounwind uwtable
define available_externally void @_mm_storeu_ps(ptr noundef %0, <4 x float> noundef %1) #2 {
  %3 = alloca ptr, align 8
  %4 = alloca <4 x float>, align 16
  store ptr %0, ptr %3, align 8, !tbaa !21
  store <4 x float> %1, ptr %4, align 16, !tbaa !12
  %5 = load <4 x float>, ptr %4, align 16, !tbaa !12
  %6 = load ptr, ptr %3, align 8, !tbaa !21
  %7 = getelementptr inbounds nuw %struct.__storeu_ps, ptr %6, i32 0, i32 0
  store <4 x float> %5, ptr %7, align 1, !tbaa !12
  ret void
}

; Function Attrs: alwaysinline nounwind uwtable
define available_externally <4 x float> @_mm_loadu_ps(ptr noundef %0) #2 {
  %2 = alloca ptr, align 8
  store ptr %0, ptr %2, align 8, !tbaa !21
  %3 = load ptr, ptr %2, align 8, !tbaa !21
  %4 = getelementptr inbounds nuw %struct.__loadu_ps, ptr %3, i32 0, i32 0
  %5 = load <4 x float>, ptr %4, align 1, !tbaa !12
  ret <4 x float> %5
}

; Function Attrs: nounwind uwtable
define void @stbir_overlapping_memcpy(ptr noundef %0, ptr noundef %1, i64 noundef %2) #0 {
  %4 = alloca ptr, align 8
  %5 = alloca ptr, align 8
  %6 = alloca i64, align 8
  %7 = alloca ptr, align 8
  %8 = alloca ptr, align 8
  %9 = alloca i64, align 8
  %10 = alloca ptr, align 8
  %11 = alloca <4 x float>, align 16
  %12 = alloca i32, align 4
  store ptr %0, ptr %4, align 8, !tbaa !3
  store ptr %1, ptr %5, align 8, !tbaa !3
  store i64 %2, ptr %6, align 8, !tbaa !7
  call void @llvm.lifetime.start.p0(i64 8, ptr %7) #12
  %13 = load ptr, ptr %5, align 8, !tbaa !3
  store ptr %13, ptr %7, align 8, !tbaa !9
  call void @llvm.lifetime.start.p0(i64 8, ptr %8) #12
  %14 = load ptr, ptr %5, align 8, !tbaa !3
  %15 = load i64, ptr %6, align 8, !tbaa !7
  %16 = getelementptr inbounds nuw i8, ptr %14, i64 %15
  store ptr %16, ptr %8, align 8, !tbaa !9
  call void @llvm.lifetime.start.p0(i64 8, ptr %9) #12
  %17 = load ptr, ptr %4, align 8, !tbaa !3
  %18 = load ptr, ptr %5, align 8, !tbaa !3
  %19 = ptrtoint ptr %17 to i64
  %20 = ptrtoint ptr %18 to i64
  %21 = sub i64 %19, %20
  store i64 %21, ptr %9, align 8, !tbaa !7
  %22 = load i64, ptr %9, align 8, !tbaa !7
  %23 = icmp sge i64 %22, 16
  br i1 %23, label %24, label %52

24:                                               ; preds = %3
  call void @llvm.lifetime.start.p0(i64 8, ptr %10) #12
  %25 = load ptr, ptr %5, align 8, !tbaa !3
  %26 = load i64, ptr %6, align 8, !tbaa !7
  %27 = and i64 %26, -16
  %28 = getelementptr inbounds nuw i8, ptr %25, i64 %27
  store ptr %28, ptr %10, align 8, !tbaa !9
  br label %29

29:                                               ; preds = %39, %24
  call void @llvm.lifetime.start.p0(i64 16, ptr %11) #12
  %30 = load ptr, ptr %7, align 8, !tbaa !9
  call void asm sideeffect "", "r,~{dirflag},~{fpsr},~{flags}"(ptr %30) #12, !srcloc !23
  %31 = load ptr, ptr %7, align 8, !tbaa !9
  %32 = call <4 x float> @_mm_loadu_ps(ptr noundef %31)
  store <4 x float> %32, ptr %11, align 16, !tbaa !12
  %33 = load ptr, ptr %7, align 8, !tbaa !9
  %34 = load i64, ptr %9, align 8, !tbaa !7
  %35 = getelementptr inbounds i8, ptr %33, i64 %34
  %36 = load <4 x float>, ptr %11, align 16, !tbaa !12
  call void @_mm_storeu_ps(ptr noundef %35, <4 x float> noundef %36)
  %37 = load ptr, ptr %7, align 8, !tbaa !9
  %38 = getelementptr inbounds i8, ptr %37, i64 16
  store ptr %38, ptr %7, align 8, !tbaa !9
  call void @llvm.lifetime.end.p0(i64 16, ptr %11) #12
  br label %39

39:                                               ; preds = %29
  %40 = load ptr, ptr %7, align 8, !tbaa !9
  %41 = load ptr, ptr %10, align 8, !tbaa !9
  %42 = icmp ult ptr %40, %41
  br i1 %42, label %29, label %43, !llvm.loop !24

43:                                               ; preds = %39
  %44 = load ptr, ptr %7, align 8, !tbaa !9
  %45 = load ptr, ptr %8, align 8, !tbaa !9
  %46 = icmp eq ptr %44, %45
  br i1 %46, label %47, label %48

47:                                               ; preds = %43
  store i32 1, ptr %12, align 4
  br label %49

48:                                               ; preds = %43
  store i32 0, ptr %12, align 4
  br label %49

49:                                               ; preds = %48, %47
  call void @llvm.lifetime.end.p0(i64 8, ptr %10) #12
  %50 = load i32, ptr %12, align 4
  switch i32 %50, label %67 [
    i32 0, label %51
  ]

51:                                               ; preds = %49
  br label %52

52:                                               ; preds = %51, %3
  br label %53

53:                                               ; preds = %62, %52
  %54 = load ptr, ptr %7, align 8, !tbaa !9
  call void asm sideeffect "", "r,~{dirflag},~{fpsr},~{flags}"(ptr %54) #12, !srcloc !25
  %55 = load ptr, ptr %7, align 8, !tbaa !9
  %56 = load i32, ptr %55, align 4, !tbaa !26
  %57 = load ptr, ptr %7, align 8, !tbaa !9
  %58 = load i64, ptr %9, align 8, !tbaa !7
  %59 = getelementptr inbounds i8, ptr %57, i64 %58
  store i32 %56, ptr %59, align 4, !tbaa !26
  %60 = load ptr, ptr %7, align 8, !tbaa !9
  %61 = getelementptr inbounds i8, ptr %60, i64 4
  store ptr %61, ptr %7, align 8, !tbaa !9
  br label %62

62:                                               ; preds = %53
  %63 = load ptr, ptr %7, align 8, !tbaa !9
  %64 = load ptr, ptr %8, align 8, !tbaa !9
  %65 = icmp ult ptr %63, %64
  br i1 %65, label %53, label %66, !llvm.loop !28

66:                                               ; preds = %62
  store i32 0, ptr %12, align 4
  br label %67

67:                                               ; preds = %66, %49
  call void @llvm.lifetime.end.p0(i64 8, ptr %9) #12
  call void @llvm.lifetime.end.p0(i64 8, ptr %8) #12
  call void @llvm.lifetime.end.p0(i64 8, ptr %7) #12
  %68 = load i32, ptr %12, align 4
  switch i32 %68, label %70 [
    i32 0, label %69
    i32 1, label %69
  ]

69:                                               ; preds = %67, %67
  ret void

70:                                               ; preds = %67
  unreachable
}