; Function Attrs: nounwind uwtable
define void @stbir_overlapping_memcpy(ptr noundef %0, ptr noundef %1, i64 noundef %2) local_unnamed_addr #0 {
  %4 = getelementptr inbounds nuw i8, ptr %1, i64 %2
  %5 = ptrtoint ptr %0 to i64
  %6 = ptrtoint ptr %1 to i64
  %7 = sub i64 %5, %6
  %8 = icmp sgt i64 %7, 15
  br i1 %8, label %9, label %.preheader

9:                                                ; preds = %3
  %10 = and i64 %2, -16
  %11 = getelementptr inbounds nuw i8, ptr %1, i64 %10
  br label %12

12:                                               ; preds = %12, %9
  %.1 = phi ptr [ %1, %9 ], [ %15, %12 ]
  tail call void asm sideeffect "", "r,~{dirflag},~{fpsr},~{flags}"(ptr %.1) #24, !srcloc !15
  %13 = load <4 x float>, ptr %.1, align 1, !tbaa !4
  %14 = getelementptr inbounds nuw i8, ptr %.1, i64 %7
  store <4 x float> %13, ptr %14, align 1, !tbaa !4
  %15 = getelementptr inbounds nuw i8, ptr %.1, i64 16
  %16 = icmp ult ptr %15, %11
  br i1 %16, label %12, label %17, !llvm.loop !16

17:                                               ; preds = %12
  %.not = icmp eq ptr %15, %4
  br i1 %.not, label %.loopexit, label %.preheader

.preheader:                                       ; preds = %17, %3
  %.2.ph = phi ptr [ %1, %3 ], [ %15, %17 ]
  br label %18

18:                                               ; preds = %.preheader, %18
  %.2 = phi ptr [ %21, %18 ], [ %.2.ph, %.preheader ]
  tail call void asm sideeffect "", "r,~{dirflag},~{fpsr},~{flags}"(ptr %.2) #24, !srcloc !17
  %19 = load i32, ptr %.2, align 4, !tbaa !18
  %20 = getelementptr inbounds i8, ptr %.2, i64 %7
  store i32 %19, ptr %20, align 4, !tbaa !18
  %21 = getelementptr inbounds nuw i8, ptr %.2, i64 4
  %22 = icmp ult ptr %21, %4
  br i1 %22, label %18, label %.loopexit, !llvm.loop !20

.loopexit:                                        ; preds = %18, %17
  ret void
}